; Function Attrs: nounwind sspstrong uwtable
define dso_local void @ide_drive_get(ptr noundef writeonly captures(none) %hd, i32 noundef %n) local_unnamed_addr #0 {
entry:
  %cmp4 = icmp sgt i32 %n, 0
  br i1 %cmp4, label %for.body.preheader, label %for.end

for.body.preheader:                               ; preds = %entry
  %wide.trip.count = zext nneg i32 %n to i64
  br label %for.body

for.body:                                         ; preds = %for.body.preheader, %for.body
  %indvars.iv = phi i64 [ 0, %for.body.preheader ], [ %indvars.iv.next, %for.body ]
  %0 = trunc nuw nsw i64 %indvars.iv to i32
  %call = tail call ptr @drive_get_by_index(i32 noundef 1, i32 noundef %0) #17
  %arrayidx = getelementptr ptr, ptr %hd, i64 %indvars.iv
  store ptr %call, ptr %arrayidx, align 8
  %indvars.iv.next = add nuw nsw i64 %indvars.iv, 1
  %exitcond.not = icmp eq i64 %indvars.iv.next, %wide.trip.count
  br i1 %exitcond.not, label %for.end, label %for.body, !llvm.loop !12

for.end:                                          ; preds = %for.body, %entry
  ret void
}